target datalayout = "e-m:e-p270:32:32-p271:32:32-p272:64:64-i64:64-i128:128-f80:128-n8:16:32:64-S128"
target triple = "x86_64-pc-linux-gnu"

%"class.llvm::DiagnosticInfo.base" = type <{ ptr, i32, i8 }>
%"class.llvm::DiagnosticInfo" = type <{ ptr, i32, i8, [3 x i8] }>
%"class.llvm::DiagnosticLocation" = type { ptr, i32, i32 }
%"class.llvm::DiagnosticInfoResourceLimit" = type { %"class.llvm::DiagnosticInfoWithLocationBase", ptr, ptr, i64, i64 }
%"class.llvm::DiagnosticInfoWithLocationBase" = type { %"class.llvm::DiagnosticInfo.base", ptr, %"class.llvm::DiagnosticLocation" }

@_ZTVN4llvm14DiagnosticInfoE = unnamed_addr constant { [6 x ptr] } { [6 x ptr] [ptr null, ptr null, ptr @_ZN4llvm14DiagnosticInfo6anchorEv, ptr @_ZN4llvm14DiagnosticInfoD2Ev, ptr @_ZN4llvm14DiagnosticInfoD0Ev, ptr @__cxa_pure_virtual] }, align 8
@_ZN4llvm18DiagnosticLocationC1EPKNS_12DISubprogramE = unnamed_addr alias void (ptr, ptr), ptr @_ZN4llvm18DiagnosticLocationC2EPKNS_12DISubprogramE

; Function Attrs: mustprogress nounwind uwtable
define linkonce_odr hidden void @_ZN4llvm14DiagnosticInfoC2EiNS_18DiagnosticSeverityE(ptr noundef nonnull align 8 dereferenceable(13) %0, i32 noundef %1, i8 noundef signext %2) unnamed_addr #0 comdat align 2 {
  %4 = alloca ptr, align 8
  %5 = alloca i32, align 4
  %6 = alloca i8, align 1
  store ptr %0, ptr %4, align 8
  store i32 %1, ptr %5, align 4
  store i8 %2, ptr %6, align 1
  %7 = load ptr, ptr %4, align 8
  store ptr getelementptr inbounds inrange(-16, 32) ({ [6 x ptr] }, ptr @_ZTVN4llvm14DiagnosticInfoE, i32 0, i32 0, i32 2), ptr %7, align 8
  %8 = getelementptr inbounds nuw %"class.llvm::DiagnosticInfo", ptr %7, i32 0, i32 1
  %9 = load i32, ptr %5, align 4
  store i32 %9, ptr %8, align 8
  %10 = getelementptr inbounds nuw %"class.llvm::DiagnosticInfo", ptr %7, i32 0, i32 2
  %11 = load i8, ptr %6, align 1
  store i8 %11, ptr %10, align 4
  ret void
}

; Function Attrs: mustprogress nounwind uwtable
define linkonce_odr hidden void @_ZN4llvm30DiagnosticInfoWithLocationBaseC2ENS_14DiagnosticKindENS_18DiagnosticSeverityERKNS_8FunctionERKNS_18DiagnosticLocationE(ptr noundef nonnull align 8 dereferenceable(40) %0, i32 noundef %1, i8 noundef signext %2, ptr noundef nonnull align 8 dereferenceable(136) %3, ptr noundef nonnull align 8 dereferenceable(16) %4) unnamed_addr #0 comdat align 2 {
  %6 = alloca ptr, align 8
  %7 = alloca i32, align 4
  %8 = alloca i8, align 1
  %9 = alloca ptr, align 8
  %10 = alloca ptr, align 8
  store ptr %0, ptr %6, align 8
  store i32 %1, ptr %7, align 4
  store i8 %2, ptr %8, align 1
  store ptr %3, ptr %9, align 8
  store ptr %4, ptr %10, align 8
  %11 = load ptr, ptr %6, align 8
  %12 = load i32, ptr %7, align 4
  %13 = load i8, ptr %8, align 1
  call void @_ZN4llvm14DiagnosticInfoC2EiNS_18DiagnosticSeverityE(ptr noundef nonnull align 8 dereferenceable(13) %11, i32 noundef %12, i8 noundef signext %13)
  store ptr getelementptr inbounds inrange(-16, 32) ({ [6 x ptr] }, ptr @_ZTVN4llvm30DiagnosticInfoWithLocationBaseE, i32 0, i32 0, i32 2), ptr %11, align 8
  %14 = getelementptr inbounds nuw %"class.llvm::DiagnosticInfoWithLocationBase", ptr %11, i32 0, i32 1
  %15 = load ptr, ptr %9, align 8
  store ptr %15, ptr %14, align 8
  %16 = getelementptr inbounds nuw %"class.llvm::DiagnosticInfoWithLocationBase", ptr %11, i32 0, i32 2
  %17 = load ptr, ptr %10, align 8
  call void @llvm.memcpy.p0.p0.i64(ptr align 8 %16, ptr align 8 %17, i64 16, i1 false)
  ret void
}

; Function Attrs: mustprogress nounwind uwtable
define dso_local void @_ZN4llvm27DiagnosticInfoResourceLimitC2ERKNS_8FunctionEPKcmmNS_18DiagnosticSeverityENS_14DiagnosticKindE(ptr noundef nonnull align 8 dereferenceable(72) %0, ptr noundef nonnull align 8 dereferenceable(136) %1, ptr noundef %2, i64 noundef %3, i64 noundef %4, i8 noundef signext %5, i32 noundef %6) unnamed_addr #0 align 2 {
  %8 = alloca ptr, align 8
  %9 = alloca ptr, align 8
  %10 = alloca ptr, align 8
  %11 = alloca i64, align 8
  %12 = alloca i64, align 8
  %13 = alloca i8, align 1
  %14 = alloca i32, align 4
  %15 = alloca %"class.llvm::DiagnosticLocation", align 8
  store ptr %0, ptr %8, align 8
  store ptr %1, ptr %9, align 8
  store ptr %2, ptr %10, align 8
  store i64 %3, ptr %11, align 8
  store i64 %4, ptr %12, align 8
  store i8 %5, ptr %13, align 1
  store i32 %6, ptr %14, align 4
  %16 = load ptr, ptr %8, align 8
  %17 = load i32, ptr %14, align 4
  %18 = load i8, ptr %13, align 1
  %19 = load ptr, ptr %9, align 8
  %20 = load ptr, ptr %9, align 8
  %21 = call noundef ptr @_ZNK4llvm8Function13getSubprogramEv(ptr noundef nonnull align 8 dereferenceable(136) %20)
  call void @_ZN4llvm18DiagnosticLocationC1EPKNS_12DISubprogramE(ptr noundef nonnull align 8 dereferenceable(16) %15, ptr noundef %21)
  call void @_ZN4llvm30DiagnosticInfoWithLocationBaseC2ENS_14DiagnosticKindENS_18DiagnosticSeverityERKNS_8FunctionERKNS_18DiagnosticLocationE(ptr noundef nonnull align 8 dereferenceable(40) %16, i32 noundef %17, i8 noundef signext %18, ptr noundef nonnull align 8 dereferenceable(136) %19, ptr noundef nonnull align 8 dereferenceable(16) %15)
  store ptr getelementptr inbounds inrange(-16, 32) ({ [6 x ptr] }, ptr @_ZTVN4llvm27DiagnosticInfoResourceLimitE, i32 0, i32 0, i32 2), ptr %16, align 8
  %22 = getelementptr inbounds nuw %"class.llvm::DiagnosticInfoResourceLimit", ptr %16, i32 0, i32 1
  %23 = load ptr, ptr %9, align 8
  store ptr %23, ptr %22, align 8
  %24 = getelementptr inbounds nuw %"class.llvm::DiagnosticInfoResourceLimit", ptr %16, i32 0, i32 2
  %25 = load ptr, ptr %10, align 8
  store ptr %25, ptr %24, align 8
  %26 = getelementptr inbounds nuw %"class.llvm::DiagnosticInfoResourceLimit", ptr %16, i32 0, i32 3
  %27 = load i64, ptr %11, align 8
  store i64 %27, ptr %26, align 8
  %28 = getelementptr inbounds nuw %"class.llvm::DiagnosticInfoResourceLimit", ptr %16, i32 0, i32 4
  %29 = load i64, ptr %12, align 8
  store i64 %29, ptr %28, align 8
  ret void
}