; Function Attrs: mustprogress nounwind uwtable
define dso_local void @_ZN4llvm27DiagnosticInfoResourceLimitC2ERKNS_8FunctionEPKcmmNS_18DiagnosticSeverityENS_14DiagnosticKindE(ptr noundef nonnull writeonly align 8 captures(none) dereferenceable(72) initializes((0, 13), (16, 72)) %0, ptr noundef nonnull align 8 dereferenceable(136) %1, ptr noundef %2, i64 noundef %3, i64 noundef %4, i8 noundef signext %5, i32 noundef %6) unnamed_addr #1 align 2 {
  %8 = alloca %"class.llvm::DiagnosticLocation", align 8
  %9 = tail call noundef ptr @_ZNK4llvm8Function13getSubprogramEv(ptr noundef nonnull align 8 dereferenceable(136) %1) #16
  call void @_ZN4llvm18DiagnosticLocationC1EPKNS_12DISubprogramE(ptr noundef nonnull align 8 dereferenceable(16) %8, ptr noundef %9) #16
  %10 = getelementptr inbounds nuw i8, ptr %0, i64 8
  store i32 %6, ptr %10, align 8
  %11 = getelementptr inbounds nuw i8, ptr %0, i64 12
  store i8 %5, ptr %11, align 4
  %12 = getelementptr inbounds nuw i8, ptr %0, i64 16
  store ptr %1, ptr %12, align 8
  %13 = getelementptr inbounds nuw i8, ptr %0, i64 24
  call void @llvm.memcpy.p0.p0.i64(ptr noundef nonnull align 8 dereferenceable(16) %13, ptr noundef nonnull align 8 dereferenceable(16) %8, i64 16, i1 false)
  store ptr getelementptr inbounds nuw inrange(-16, 32) (i8, ptr @_ZTVN4llvm27DiagnosticInfoResourceLimitE, i64 16), ptr %0, align 8
  %14 = getelementptr inbounds nuw i8, ptr %0, i64 40
  store ptr %1, ptr %14, align 8
  %15 = getelementptr inbounds nuw i8, ptr %0, i64 48
  store ptr %2, ptr %15, align 8
  %16 = getelementptr inbounds nuw i8, ptr %0, i64 56
  store i64 %3, ptr %16, align 8
  %17 = getelementptr inbounds nuw i8, ptr %0, i64 64
  store i64 %4, ptr %17, align 8
  ret void
}